target datalayout = "e-m:e-p270:32:32-p271:32:32-p272:64:64-i64:64-i128:128-f80:128-n8:16:32:64-S128"
target triple = "x86_64-pc-linux-gnu"

%struct.strbuf = type { i64, i64, ptr }
%struct.update_info_ctx = type { ptr, ptr, ptr, %struct.strbuf, %struct.strbuf }
%struct.stat = type { i64, i64, i64, i32, i32, i32, i32, i64, i64, i64, i64, %struct.timespec, %struct.timespec, %struct.timespec, [3 x i64] }
%struct.timespec = type { i64, i64 }

@.str.2 = private unnamed_addr constant [10 x i8] c"%s_XXXXXX\00", align 1
@strbuf_slopbuf = external global [0 x i8], align 1
@.str.3 = private unnamed_addr constant [2 x i8] c"w\00", align 1
@.str.4 = private unnamed_addr constant [2 x i8] c"r\00", align 1
@.str.5 = private unnamed_addr constant [20 x i8] c"unable to update %s\00", align 1

; Function Attrs: inlinehint nounwind uwtable
define internal i32 @const_error() #4 {
  ret i32 -1
}

; Function Attrs: nounwind uwtable
define internal void @uic_mark_stale(ptr noundef %0) #0 {
  %2 = alloca ptr, align 8
  store ptr %0, ptr %2, align 8, !tbaa !30
  %3 = load ptr, ptr %2, align 8, !tbaa !30
  %4 = getelementptr inbounds nuw %struct.update_info_ctx, ptr %3, i32 0, i32 2
  %5 = load ptr, ptr %4, align 8, !tbaa !22
  %6 = call i32 @fclose(ptr noundef %5)
  %7 = load ptr, ptr %2, align 8, !tbaa !30
  %8 = getelementptr inbounds nuw %struct.update_info_ctx, ptr %7, i32 0, i32 2
  store ptr null, ptr %8, align 8, !tbaa !22
  ret void
}

; Function Attrs: nounwind uwtable
define internal i32 @uic_is_stale(ptr noundef %0) #0 {
  %2 = alloca ptr, align 8
  store ptr %0, ptr %2, align 8, !tbaa !30
  %3 = load ptr, ptr %2, align 8, !tbaa !30
  %4 = getelementptr inbounds nuw %struct.update_info_ctx, ptr %3, i32 0, i32 2
  %5 = load ptr, ptr %4, align 8, !tbaa !22
  %6 = icmp eq ptr %5, null
  %7 = zext i1 %6 to i32
  ret i32 %7
}

; Function Attrs: inlinehint nounwind uwtable
define internal ptr @mks_tempfile_m(ptr noundef %0, i32 noundef %1) #4 {
  %3 = alloca ptr, align 8
  %4 = alloca i32, align 4
  store ptr %0, ptr %3, align 8, !tbaa !11
  store i32 %1, ptr %4, align 4, !tbaa !9
  %5 = load ptr, ptr %3, align 8, !tbaa !11
  %6 = load i32, ptr %4, align 4, !tbaa !9
  %7 = call ptr @mks_tempfile_sm(ptr noundef %5, i32 noundef 0, i32 noundef %6)
  ret ptr %7
}

; Function Attrs: nounwind uwtable
define internal i32 @update_info_file(ptr noundef %0, ptr noundef %1, ptr noundef %2, i32 noundef %3) #0 {
  %5 = alloca i32, align 4
  %6 = alloca ptr, align 8
  %7 = alloca ptr, align 8
  %8 = alloca ptr, align 8
  %9 = alloca i32, align 4
  %10 = alloca ptr, align 8
  %11 = alloca ptr, align 8
  %12 = alloca i32, align 4
  %13 = alloca %struct.update_info_ctx, align 8
  %14 = alloca %struct.stat, align 8
  %15 = alloca i64, align 8
  %16 = alloca i32, align 4
  %17 = alloca i32, align 4
  store ptr %0, ptr %6, align 8, !tbaa !4
  store ptr %1, ptr %7, align 8, !tbaa !11
  store ptr %2, ptr %8, align 8, !tbaa !13
  store i32 %3, ptr %9, align 4, !tbaa !9
  call void @llvm.lifetime.start.p0(i64 8, ptr %10) #9
  %18 = load ptr, ptr %7, align 8, !tbaa !11
  %19 = call ptr (ptr, ...) @mkpathdup(ptr noundef @.str.2, ptr noundef %18)
  store ptr %19, ptr %10, align 8, !tbaa !11
  call void @llvm.lifetime.start.p0(i64 8, ptr %11) #9
  store ptr null, ptr %11, align 8, !tbaa !14
  call void @llvm.lifetime.start.p0(i64 4, ptr %12) #9
  store i32 -1, ptr %12, align 4, !tbaa !9
  call void @llvm.lifetime.start.p0(i64 72, ptr %13) #9
  %20 = getelementptr inbounds nuw %struct.update_info_ctx, ptr %13, i32 0, i32 0
  %21 = load ptr, ptr %6, align 8, !tbaa !4
  store ptr %21, ptr %20, align 8, !tbaa !16
  %22 = getelementptr inbounds nuw %struct.update_info_ctx, ptr %13, i32 0, i32 1
  store ptr null, ptr %22, align 8, !tbaa !21
  %23 = getelementptr inbounds nuw %struct.update_info_ctx, ptr %13, i32 0, i32 2
  store ptr null, ptr %23, align 8, !tbaa !22
  %24 = getelementptr inbounds nuw %struct.update_info_ctx, ptr %13, i32 0, i32 3
  %25 = getelementptr inbounds nuw %struct.strbuf, ptr %24, i32 0, i32 0
  store i64 0, ptr %25, align 8, !tbaa !23
  %26 = getelementptr inbounds nuw %struct.strbuf, ptr %24, i32 0, i32 1
  store i64 0, ptr %26, align 8, !tbaa !24
  %27 = getelementptr inbounds nuw %struct.strbuf, ptr %24, i32 0, i32 2
  store ptr @strbuf_slopbuf, ptr %27, align 8, !tbaa !25
  %28 = getelementptr inbounds nuw %struct.update_info_ctx, ptr %13, i32 0, i32 4
  %29 = getelementptr inbounds nuw %struct.strbuf, ptr %28, i32 0, i32 0
  store i64 0, ptr %29, align 8, !tbaa !23
  %30 = getelementptr inbounds nuw %struct.strbuf, ptr %28, i32 0, i32 1
  store i64 0, ptr %30, align 8, !tbaa !24
  %31 = getelementptr inbounds nuw %struct.strbuf, ptr %28, i32 0, i32 2
  store ptr @strbuf_slopbuf, ptr %31, align 8, !tbaa !25
  %32 = load ptr, ptr %7, align 8, !tbaa !11
  %33 = call i32 @safe_create_leading_directories(ptr noundef %32)
  %34 = load ptr, ptr %10, align 8, !tbaa !11
  %35 = call ptr @mks_tempfile_m(ptr noundef %34, i32 noundef 438)
  store ptr %35, ptr %11, align 8, !tbaa !14
  %36 = load ptr, ptr %11, align 8, !tbaa !14
  %37 = icmp ne ptr %36, null
  br i1 %37, label %39, label %38

38:                                               ; preds = %4
  br label %106

39:                                               ; preds = %4
  %40 = load ptr, ptr %11, align 8, !tbaa !14
  %41 = call ptr @fdopen_tempfile(ptr noundef %40, ptr noundef @.str.3)
  %42 = getelementptr inbounds nuw %struct.update_info_ctx, ptr %13, i32 0, i32 1
  store ptr %41, ptr %42, align 8, !tbaa !21
  %43 = getelementptr inbounds nuw %struct.update_info_ctx, ptr %13, i32 0, i32 1
  %44 = load ptr, ptr %43, align 8, !tbaa !21
  %45 = icmp ne ptr %44, null
  br i1 %45, label %47, label %46

46:                                               ; preds = %39
  br label %106

47:                                               ; preds = %39
  %48 = load i32, ptr %9, align 4, !tbaa !9
  %49 = icmp ne i32 %48, 0
  br i1 %49, label %54, label %50

50:                                               ; preds = %47
  %51 = load ptr, ptr %7, align 8, !tbaa !11
  %52 = call ptr @fopen_or_warn(ptr noundef %51, ptr noundef @.str.4)
  %53 = getelementptr inbounds nuw %struct.update_info_ctx, ptr %13, i32 0, i32 2
  store ptr %52, ptr %53, align 8, !tbaa !22
  br label %54

54:                                               ; preds = %50, %47
  %55 = load ptr, ptr %8, align 8, !tbaa !13
  %56 = call i32 %55(ptr noundef %13)
  store i32 %56, ptr %12, align 4, !tbaa !9
  %57 = load i32, ptr %12, align 4, !tbaa !9
  %58 = icmp ne i32 %57, 0
  br i1 %58, label %59, label %60

59:                                               ; preds = %54
  br label %106

60:                                               ; preds = %54
  %61 = call i32 @uic_is_stale(ptr noundef %13)
  %62 = icmp ne i32 %61, 0
  br i1 %62, label %87, label %63

63:                                               ; preds = %60
  call void @llvm.lifetime.start.p0(i64 144, ptr %14) #9
  call void @llvm.lifetime.start.p0(i64 8, ptr %15) #9
  %64 = getelementptr inbounds nuw %struct.update_info_ctx, ptr %13, i32 0, i32 1
  %65 = load ptr, ptr %64, align 8, !tbaa !21
  %66 = call i64 @ftell(ptr noundef %65)
  store i64 %66, ptr %15, align 8, !tbaa !26
  call void @llvm.lifetime.start.p0(i64 4, ptr %16) #9
  %67 = getelementptr inbounds nuw %struct.update_info_ctx, ptr %13, i32 0, i32 2
  %68 = load ptr, ptr %67, align 8, !tbaa !22
  %69 = call i32 @fileno(ptr noundef %68) #9
  store i32 %69, ptr %16, align 4, !tbaa !9
  %70 = load i64, ptr %15, align 8, !tbaa !26
  %71 = icmp slt i64 %70, 0
  br i1 %71, label %72, label %73

72:                                               ; preds = %63
  store i32 -1, ptr %12, align 4, !tbaa !9
  store i32 2, ptr %17, align 4
  br label %84

73:                                               ; preds = %63
  %74 = load i32, ptr %16, align 4, !tbaa !9
  %75 = call i32 @fstat64(i32 noundef %74, ptr noundef %14) #9
  %76 = icmp ne i32 %75, 0
  br i1 %76, label %82, label %77

77:                                               ; preds = %73
  %78 = getelementptr inbounds nuw %struct.stat, ptr %14, i32 0, i32 8
  %79 = load i64, ptr %78, align 8, !tbaa !27
  %80 = load i64, ptr %15, align 8, !tbaa !26
  %81 = icmp ne i64 %79, %80
  br i1 %81, label %82, label %83

82:                                               ; preds = %77, %73
  call void @uic_mark_stale(ptr noundef %13)
  br label %83

83:                                               ; preds = %82, %77
  store i32 0, ptr %17, align 4
  br label %84

84:                                               ; preds = %72, %83
  call void @llvm.lifetime.end.p0(i64 4, ptr %16) #9
  call void @llvm.lifetime.end.p0(i64 8, ptr %15) #9
  call void @llvm.lifetime.end.p0(i64 144, ptr %14) #9
  %85 = load i32, ptr %17, align 4
  switch i32 %85, label %131 [
    i32 0, label %86
    i32 2, label %106
  ]

86:                                               ; preds = %84
  br label %87

87:                                               ; preds = %86, %60
  %88 = getelementptr inbounds nuw %struct.update_info_ctx, ptr %13, i32 0, i32 1
  store ptr null, ptr %88, align 8, !tbaa !21
  %89 = call i32 @uic_is_stale(ptr noundef %13)
  %90 = icmp ne i32 %89, 0
  br i1 %90, label %91, label %103

91:                                               ; preds = %87
  %92 = load ptr, ptr %11, align 8, !tbaa !14
  %93 = call ptr @get_tempfile_path(ptr noundef %92)
  %94 = call i32 @adjust_shared_perm(ptr noundef %93)
  %95 = icmp slt i32 %94, 0
  br i1 %95, label %96, label %97

96:                                               ; preds = %91
  br label %106

97:                                               ; preds = %91
  %98 = load ptr, ptr %7, align 8, !tbaa !11
  %99 = call i32 @rename_tempfile(ptr noundef %11, ptr noundef %98)
  %100 = icmp slt i32 %99, 0
  br i1 %100, label %101, label %102

101:                                              ; preds = %97
  br label %106

102:                                              ; preds = %97
  br label %105

103:                                              ; preds = %87
  %104 = call i32 @delete_tempfile(ptr noundef %11)
  br label %105

105:                                              ; preds = %103, %102
  store i32 0, ptr %12, align 4, !tbaa !9
  br label %106

106:                                              ; preds = %105, %84, %101, %96, %59, %46, %38
  %107 = load i32, ptr %12, align 4, !tbaa !9
  %108 = icmp ne i32 %107, 0
  br i1 %108, label %109, label %118

109:                                              ; preds = %106
  %110 = load ptr, ptr %7, align 8, !tbaa !11
  %111 = call i32 (ptr, ...) @error_errno(ptr noundef @.str.5, ptr noundef %110)
  %112 = call i32 @const_error()
  %113 = load ptr, ptr %11, align 8, !tbaa !14
  %114 = icmp ne ptr %113, null
  br i1 %114, label %115, label %117

115:                                              ; preds = %109
  %116 = call i32 @delete_tempfile(ptr noundef %11)
  br label %117

117:                                              ; preds = %115, %109
  br label %118

118:                                              ; preds = %117, %106
  %119 = load ptr, ptr %10, align 8, !tbaa !11
  call void @free(ptr noundef %119) #9
  %120 = getelementptr inbounds nuw %struct.update_info_ctx, ptr %13, i32 0, i32 2
  %121 = load ptr, ptr %120, align 8, !tbaa !22
  %122 = icmp ne ptr %121, null
  br i1 %122, label %123, label %127

123:                                              ; preds = %118
  %124 = getelementptr inbounds nuw %struct.update_info_ctx, ptr %13, i32 0, i32 2
  %125 = load ptr, ptr %124, align 8, !tbaa !22
  %126 = call i32 @fclose(ptr noundef %125)
  br label %127

127:                                              ; preds = %123, %118
  %128 = getelementptr inbounds nuw %struct.update_info_ctx, ptr %13, i32 0, i32 4
  call void @strbuf_release(ptr noundef %128)
  %129 = getelementptr inbounds nuw %struct.update_info_ctx, ptr %13, i32 0, i32 3
  call void @strbuf_release(ptr noundef %129)
  %130 = load i32, ptr %12, align 4, !tbaa !9
  store i32 %130, ptr %5, align 4
  store i32 1, ptr %17, align 4
  br label %131

131:                                              ; preds = %127, %84
  call void @llvm.lifetime.end.p0(i64 72, ptr %13) #9
  call void @llvm.lifetime.end.p0(i64 4, ptr %12) #9
  call void @llvm.lifetime.end.p0(i64 8, ptr %11) #9
  call void @llvm.lifetime.end.p0(i64 8, ptr %10) #9
  %132 = load i32, ptr %5, align 4
  ret i32 %132
}