; Function Attrs: nounwind uwtable
define internal fastcc i32 @update_info_file(ptr noundef %0, ptr noundef %1, ptr noundef readonly captures(none) %2, i32 noundef %3) unnamed_addr #0 {
  %5 = alloca ptr, align 8
  %6 = alloca %struct.update_info_ctx, align 8
  %7 = alloca %struct.stat, align 8
  %8 = tail call ptr (ptr, ...) @mkpathdup(ptr noundef nonnull @.str.2, ptr noundef %1) #14
  call void @llvm.lifetime.start.p0(i64 8, ptr nonnull %5) #14
  call void @llvm.lifetime.start.p0(i64 72, ptr nonnull %6) #14
  store ptr %0, ptr %6, align 8, !tbaa !33
  %9 = getelementptr inbounds nuw i8, ptr %6, i64 8
  %10 = getelementptr inbounds nuw i8, ptr %6, i64 16
  %11 = getelementptr inbounds nuw i8, ptr %6, i64 40
  call void @llvm.memset.p0.i64(ptr noundef nonnull align 8 dereferenceable(32) %9, i8 0, i64 32, i1 false)
  store ptr @strbuf_slopbuf, ptr %11, align 8, !tbaa !25
  %12 = getelementptr inbounds nuw i8, ptr %6, i64 48
  %13 = getelementptr inbounds nuw i8, ptr %6, i64 64
  call void @llvm.memset.p0.i64(ptr noundef nonnull align 8 dereferenceable(16) %12, i8 0, i64 16, i1 false)
  store ptr @strbuf_slopbuf, ptr %13, align 8, !tbaa !25
  %14 = tail call i32 @safe_create_leading_directories(ptr noundef %1) #14
  %15 = tail call ptr @mks_tempfile_sm(ptr noundef %8, i32 noundef 0, i32 noundef 438) #14
  store ptr %15, ptr %5, align 8, !tbaa !37
  %.not = icmp eq ptr %15, null
  br i1 %.not, label %47, label %16

16:                                               ; preds = %4
  %17 = tail call ptr @fdopen_tempfile(ptr noundef nonnull %15, ptr noundef nonnull @.str.3) #14
  store ptr %17, ptr %9, align 8, !tbaa !39
  %.not24 = icmp eq ptr %17, null
  br i1 %.not24, label %47, label %18

18:                                               ; preds = %16
  %.not25 = icmp eq i32 %3, 0
  br i1 %.not25, label %19, label %21

19:                                               ; preds = %18
  %20 = tail call ptr @fopen_or_warn(ptr noundef %1, ptr noundef nonnull @.str.4) #14
  store ptr %20, ptr %10, align 8, !tbaa !40
  br label %21

21:                                               ; preds = %19, %18
  %22 = call i32 %2(ptr noundef nonnull %6) #14, !callees !41
  %.not26 = icmp eq i32 %22, 0
  br i1 %.not26, label %23, label %47

23:                                               ; preds = %21
  %.val = load ptr, ptr %10, align 8, !tbaa !40
  %.not46 = icmp eq ptr %.val, null
  br i1 %.not46, label %.sink.split, label %24

24:                                               ; preds = %23
  call void @llvm.lifetime.start.p0(i64 144, ptr nonnull %7) #14
  %25 = load ptr, ptr %9, align 8, !tbaa !39
  %26 = call i64 @ftell(ptr noundef %25)
  %27 = load ptr, ptr %10, align 8, !tbaa !40
  %28 = call i32 @fileno(ptr noundef %27) #14
  %29 = icmp slt i64 %26, 0
  br i1 %29, label %35, label %30

30:                                               ; preds = %24
  %31 = call i32 @fstat64(i32 noundef %28, ptr noundef nonnull %7) #14
  %.not28 = icmp eq i32 %31, 0
  %32 = getelementptr inbounds nuw i8, ptr %7, i64 48
  %33 = load i64, ptr %32, align 8
  %.not29 = icmp eq i64 %33, %26
  %or.cond = select i1 %.not28, i1 %.not29, i1 false
  %.val36.pre.pre = load ptr, ptr %10, align 8, !tbaa !40
  br i1 %or.cond, label %36, label %.thread52

.thread52:                                        ; preds = %30
  %34 = call i32 @fclose(ptr noundef %.val36.pre.pre)
  store ptr null, ptr %10, align 8, !tbaa !40
  call void @llvm.lifetime.end.p0(i64 144, ptr nonnull %7) #14
  br label %.sink.split

35:                                               ; preds = %24
  call void @llvm.lifetime.end.p0(i64 144, ptr nonnull %7) #14
  br label %47

36:                                               ; preds = %30
  call void @llvm.lifetime.end.p0(i64 144, ptr nonnull %7) #14
  %37 = icmp eq ptr %.val36.pre.pre, null
  store ptr null, ptr %9, align 8, !tbaa !39
  br i1 %37, label %38, label %45

.sink.split:                                      ; preds = %23, %.thread52
  store ptr null, ptr %9, align 8, !tbaa !39
  br label %38

38:                                               ; preds = %.sink.split, %36
  %39 = load ptr, ptr %5, align 8, !tbaa !37
  %40 = call ptr @get_tempfile_path(ptr noundef %39) #14
  %41 = call i32 @adjust_shared_perm(ptr noundef %40) #14
  %42 = icmp slt i32 %41, 0
  br i1 %42, label %52, label %43

43:                                               ; preds = %38
  %44 = call i32 @rename_tempfile(ptr noundef nonnull %5, ptr noundef %1) #14
  br label %52

45:                                               ; preds = %36
  %46 = call i32 @delete_tempfile(ptr noundef nonnull %5) #14
  br label %52

47:                                               ; preds = %21, %35, %16, %4
  %.018.ph = phi i32 [ -1, %4 ], [ -1, %16 ], [ -1, %35 ], [ %22, %21 ]
  %48 = call i32 (ptr, ...) @error_errno(ptr noundef nonnull @.str.5, ptr noundef %1) #14
  %49 = load ptr, ptr %5, align 8, !tbaa !37
  %.not32 = icmp eq ptr %49, null
  br i1 %.not32, label %52, label %50

50:                                               ; preds = %47
  %51 = call i32 @delete_tempfile(ptr noundef nonnull %5) #14
  br label %52

52:                                               ; preds = %43, %38, %45, %47, %50
  %.01845 = phi i32 [ %.018.ph, %47 ], [ %.018.ph, %50 ], [ 0, %38 ], [ 0, %43 ], [ 0, %45 ]
  call void @free(ptr noundef %8) #14
  %53 = load ptr, ptr %10, align 8, !tbaa !40
  %.not33 = icmp eq ptr %53, null
  br i1 %.not33, label %56, label %54

54:                                               ; preds = %52
  %55 = call i32 @fclose(ptr noundef nonnull %53)
  br label %56

56:                                               ; preds = %54, %52
  %57 = getelementptr inbounds nuw i8, ptr %6, i64 24
  call void @strbuf_release(ptr noundef nonnull %12) #14
  call void @strbuf_release(ptr noundef nonnull %57) #14
  call void @llvm.lifetime.end.p0(i64 72, ptr nonnull %6) #14
  call void @llvm.lifetime.end.p0(i64 8, ptr nonnull %5) #14
  ret i32 %.01845
}